target datalayout = "e-m:e-p270:32:32-p271:32:32-p272:64:64-i64:64-i128:128-f80:128-n8:16:32:64-S128"
target triple = "x86_64-pc-linux-gnu"

%struct.Res_Sim_t_ = type { ptr, i32, i32, i32, i32, i32, i32, i32, i32, i32, i32, ptr, ptr, ptr, ptr, i32, i32, ptr, i64 }
%struct.Vec_Ptr_t_ = type { i32, i32, ptr }
%struct.Abc_Ntk_t_ = type { i32, i32, ptr, ptr, ptr, ptr, ptr, ptr, ptr, ptr, ptr, ptr, ptr, [11 x i32], i32, i32, i32, i32, ptr, i32, ptr, ptr, i32, i32, i32, double, i32, %struct.Vec_Int_t_, ptr, ptr, ptr, ptr, ptr, float, i32, ptr, ptr, ptr, ptr, ptr, ptr, ptr, ptr, ptr, ptr, ptr, ptr, ptr, ptr, ptr, ptr, ptr, ptr, ptr, ptr, ptr, ptr }
%struct.Vec_Int_t_ = type { i32, i32, ptr }
%struct.Abc_Obj_t_ = type { ptr, ptr, i32, i32, %struct.Vec_Int_t_, %struct.Vec_Int_t_, %union.anon, %union.anon.0 }
%union.anon = type { ptr }
%union.anon.0 = type { ptr }

; Function Attrs: inlinehint nounwind uwtable
define internal i32 @Vec_PtrSize(ptr noundef %0) #4 {
  %2 = alloca ptr, align 8
  store ptr %0, ptr %2, align 8, !tbaa !44
  %3 = load ptr, ptr %2, align 8, !tbaa !44
  %4 = getelementptr inbounds nuw %struct.Vec_Ptr_t_, ptr %3, i32 0, i32 1
  %5 = load i32, ptr %4, align 4, !tbaa !45
  ret i32 %5
}

; Function Attrs: inlinehint nounwind uwtable
define internal ptr @Abc_NtkPo(ptr noundef %0, i32 noundef %1) #4 {
  %3 = alloca ptr, align 8
  %4 = alloca i32, align 4
  store ptr %0, ptr %3, align 8, !tbaa !37
  store i32 %1, ptr %4, align 4, !tbaa !3
  %5 = load ptr, ptr %3, align 8, !tbaa !37
  %6 = getelementptr inbounds nuw %struct.Abc_Ntk_t_, ptr %5, i32 0, i32 7
  %7 = load ptr, ptr %6, align 8, !tbaa !62
  %8 = load i32, ptr %4, align 4, !tbaa !3
  %9 = call ptr @Vec_PtrEntry(ptr noundef %7, i32 noundef %8)
  ret ptr %9
}

; Function Attrs: inlinehint nounwind uwtable
define internal i32 @Abc_InfoHasBit(ptr noundef %0, i32 noundef %1) #4 {
  %3 = alloca ptr, align 8
  %4 = alloca i32, align 4
  store ptr %0, ptr %3, align 8, !tbaa !28
  store i32 %1, ptr %4, align 4, !tbaa !3
  %5 = load ptr, ptr %3, align 8, !tbaa !28
  %6 = load i32, ptr %4, align 4, !tbaa !3
  %7 = ashr i32 %6, 5
  %8 = sext i32 %7 to i64
  %9 = getelementptr inbounds i32, ptr %5, i64 %8
  %10 = load i32, ptr %9, align 4, !tbaa !3
  %11 = load i32, ptr %4, align 4, !tbaa !3
  %12 = and i32 %11, 31
  %13 = shl i32 1, %12
  %14 = and i32 %10, %13
  %15 = icmp ugt i32 %14, 0
  %16 = zext i1 %15 to i32
  ret i32 %16
}

; Function Attrs: inlinehint nounwind uwtable
define internal ptr @Vec_PtrEntry(ptr noundef %0, i32 noundef %1) #4 {
  %3 = alloca ptr, align 8
  %4 = alloca i32, align 4
  store ptr %0, ptr %3, align 8, !tbaa !44
  store i32 %1, ptr %4, align 4, !tbaa !3
  %5 = load ptr, ptr %3, align 8, !tbaa !44
  %6 = getelementptr inbounds nuw %struct.Vec_Ptr_t_, ptr %5, i32 0, i32 2
  %7 = load ptr, ptr %6, align 8, !tbaa !61
  %8 = load i32, ptr %4, align 4, !tbaa !3
  %9 = sext i32 %8 to i64
  %10 = getelementptr inbounds ptr, ptr %7, i64 %9
  %11 = load ptr, ptr %10, align 8, !tbaa !27
  ret ptr %11
}

; Function Attrs: inlinehint nounwind uwtable
define internal ptr @Abc_NtkPi(ptr noundef %0, i32 noundef %1) #4 {
  %3 = alloca ptr, align 8
  %4 = alloca i32, align 4
  store ptr %0, ptr %3, align 8, !tbaa !37
  store i32 %1, ptr %4, align 4, !tbaa !3
  %5 = load ptr, ptr %3, align 8, !tbaa !37
  %6 = getelementptr inbounds nuw %struct.Abc_Ntk_t_, ptr %5, i32 0, i32 6
  %7 = load ptr, ptr %6, align 8, !tbaa !70
  %8 = load i32, ptr %4, align 4, !tbaa !3
  %9 = call ptr @Vec_PtrEntry(ptr noundef %7, i32 noundef %8)
  ret ptr %9
}

; Function Attrs: inlinehint nounwind uwtable
define internal i32 @Abc_NtkPiNum(ptr noundef %0) #4 {
  %2 = alloca ptr, align 8
  store ptr %0, ptr %2, align 8, !tbaa !37
  %3 = load ptr, ptr %2, align 8, !tbaa !37
  %4 = getelementptr inbounds nuw %struct.Abc_Ntk_t_, ptr %3, i32 0, i32 6
  %5 = load ptr, ptr %4, align 8, !tbaa !70
  %6 = call i32 @Vec_PtrSize(ptr noundef %5)
  ret i32 %6
}

; Function Attrs: nounwind uwtable
define i32 @Res_SimVerifyValue(ptr noundef %0, i32 noundef %1) #0 {
  %3 = alloca ptr, align 8
  %4 = alloca i32, align 4
  %5 = alloca ptr, align 8
  %6 = alloca ptr, align 8
  %7 = alloca ptr, align 8
  %8 = alloca i32, align 4
  %9 = alloca i32, align 4
  store ptr %0, ptr %3, align 8, !tbaa !7
  store i32 %1, ptr %4, align 4, !tbaa !3
  call void @llvm.lifetime.start.p0(i64 8, ptr %5) #7
  call void @llvm.lifetime.start.p0(i64 8, ptr %6) #7
  call void @llvm.lifetime.start.p0(i64 8, ptr %7) #7
  call void @llvm.lifetime.start.p0(i64 4, ptr %8) #7
  call void @llvm.lifetime.start.p0(i64 4, ptr %9) #7
  store i32 0, ptr %8, align 4, !tbaa !3
  br label %10

10:                                               ; preds = %72, %2
  %11 = load i32, ptr %8, align 4, !tbaa !3
  %12 = load ptr, ptr %3, align 8, !tbaa !7
  %13 = getelementptr inbounds nuw %struct.Res_Sim_t_, ptr %12, i32 0, i32 0
  %14 = load ptr, ptr %13, align 8, !tbaa !38
  %15 = call i32 @Abc_NtkPiNum(ptr noundef %14)
  %16 = icmp slt i32 %11, %15
  br i1 %16, label %17, label %23

17:                                               ; preds = %10
  %18 = load ptr, ptr %3, align 8, !tbaa !7
  %19 = getelementptr inbounds nuw %struct.Res_Sim_t_, ptr %18, i32 0, i32 0
  %20 = load ptr, ptr %19, align 8, !tbaa !38
  %21 = load i32, ptr %8, align 4, !tbaa !3
  %22 = call ptr @Abc_NtkPi(ptr noundef %20, i32 noundef %21)
  store ptr %22, ptr %5, align 8, !tbaa !65
  br label %23

23:                                               ; preds = %17, %10
  %24 = phi i1 [ false, %10 ], [ true, %17 ]
  br i1 %24, label %25, label %75

25:                                               ; preds = %23
  %26 = load i32, ptr %8, align 4, !tbaa !3
  %27 = load ptr, ptr %3, align 8, !tbaa !7
  %28 = getelementptr inbounds nuw %struct.Res_Sim_t_, ptr %27, i32 0, i32 1
  %29 = load i32, ptr %28, align 8, !tbaa !39
  %30 = icmp eq i32 %26, %29
  br i1 %30, label %31, label %32

31:                                               ; preds = %25
  br label %75

32:                                               ; preds = %25
  %33 = load i32, ptr %4, align 4, !tbaa !3
  %34 = icmp ne i32 %33, 0
  br i1 %34, label %35, label %47

35:                                               ; preds = %32
  %36 = load ptr, ptr %3, align 8, !tbaa !7
  %37 = getelementptr inbounds nuw %struct.Res_Sim_t_, ptr %36, i32 0, i32 13
  %38 = load ptr, ptr %37, align 8, !tbaa !24
  %39 = load i32, ptr %8, align 4, !tbaa !3
  %40 = call ptr @Vec_PtrEntry(ptr noundef %38, i32 noundef %39)
  store ptr %40, ptr %7, align 8, !tbaa !28
  %41 = load ptr, ptr %7, align 8, !tbaa !28
  %42 = load ptr, ptr %3, align 8, !tbaa !7
  %43 = getelementptr inbounds nuw %struct.Res_Sim_t_, ptr %42, i32 0, i32 16
  %44 = load i32, ptr %43, align 4, !tbaa !41
  %45 = sub nsw i32 %44, 1
  %46 = call i32 @Abc_InfoHasBit(ptr noundef %41, i32 noundef %45)
  store i32 %46, ptr %9, align 4, !tbaa !3
  br label %59

47:                                               ; preds = %32
  %48 = load ptr, ptr %3, align 8, !tbaa !7
  %49 = getelementptr inbounds nuw %struct.Res_Sim_t_, ptr %48, i32 0, i32 12
  %50 = load ptr, ptr %49, align 8, !tbaa !23
  %51 = load i32, ptr %8, align 4, !tbaa !3
  %52 = call ptr @Vec_PtrEntry(ptr noundef %50, i32 noundef %51)
  store ptr %52, ptr %7, align 8, !tbaa !28
  %53 = load ptr, ptr %7, align 8, !tbaa !28
  %54 = load ptr, ptr %3, align 8, !tbaa !7
  %55 = getelementptr inbounds nuw %struct.Res_Sim_t_, ptr %54, i32 0, i32 15
  %56 = load i32, ptr %55, align 8, !tbaa !40
  %57 = sub nsw i32 %56, 1
  %58 = call i32 @Abc_InfoHasBit(ptr noundef %53, i32 noundef %57)
  store i32 %58, ptr %9, align 4, !tbaa !3
  br label %59

59:                                               ; preds = %47, %35
  %60 = load ptr, ptr %3, align 8, !tbaa !7
  %61 = getelementptr inbounds nuw %struct.Res_Sim_t_, ptr %60, i32 0, i32 11
  %62 = load ptr, ptr %61, align 8, !tbaa !22
  %63 = load ptr, ptr %5, align 8, !tbaa !65
  %64 = getelementptr inbounds nuw %struct.Abc_Obj_t_, ptr %63, i32 0, i32 2
  %65 = load i32, ptr %64, align 8, !tbaa !67
  %66 = call ptr @Vec_PtrEntry(ptr noundef %62, i32 noundef %65)
  store ptr %66, ptr %6, align 8, !tbaa !28
  %67 = load i32, ptr %9, align 4, !tbaa !3
  %68 = icmp ne i32 %67, 0
  %69 = select i1 %68, i32 -1, i32 0
  %70 = load ptr, ptr %6, align 8, !tbaa !28
  %71 = getelementptr inbounds i32, ptr %70, i64 0
  store i32 %69, ptr %71, align 4, !tbaa !3
  br label %72

72:                                               ; preds = %59
  %73 = load i32, ptr %8, align 4, !tbaa !3
  %74 = add nsw i32 %73, 1
  store i32 %74, ptr %8, align 4, !tbaa !3
  br label %10, !llvm.loop !112

75:                                               ; preds = %31, %23
  %76 = load ptr, ptr %3, align 8, !tbaa !7
  call void @Res_SimPerformRound(ptr noundef %76, i32 noundef 1)
  %77 = load ptr, ptr %3, align 8, !tbaa !7
  %78 = getelementptr inbounds nuw %struct.Res_Sim_t_, ptr %77, i32 0, i32 0
  %79 = load ptr, ptr %78, align 8, !tbaa !38
  %80 = call ptr @Abc_NtkPo(ptr noundef %79, i32 noundef 1)
  store ptr %80, ptr %5, align 8, !tbaa !65
  %81 = load ptr, ptr %3, align 8, !tbaa !7
  %82 = getelementptr inbounds nuw %struct.Res_Sim_t_, ptr %81, i32 0, i32 11
  %83 = load ptr, ptr %82, align 8, !tbaa !22
  %84 = load ptr, ptr %5, align 8, !tbaa !65
  %85 = getelementptr inbounds nuw %struct.Abc_Obj_t_, ptr %84, i32 0, i32 2
  %86 = load i32, ptr %85, align 8, !tbaa !67
  %87 = call ptr @Vec_PtrEntry(ptr noundef %83, i32 noundef %86)
  store ptr %87, ptr %6, align 8, !tbaa !28
  %88 = load ptr, ptr %6, align 8, !tbaa !28
  %89 = getelementptr inbounds i32, ptr %88, i64 0
  %90 = load i32, ptr %89, align 4, !tbaa !3
  %91 = icmp ugt i32 %90, 0
  %92 = zext i1 %91 to i32
  call void @llvm.lifetime.end.p0(i64 4, ptr %9) #7
  call void @llvm.lifetime.end.p0(i64 4, ptr %8) #7
  call void @llvm.lifetime.end.p0(i64 8, ptr %7) #7
  call void @llvm.lifetime.end.p0(i64 8, ptr %6) #7
  call void @llvm.lifetime.end.p0(i64 8, ptr %5) #7
  ret i32 %92
}