; Function Attrs: nofree norecurse nosync nounwind memory(readwrite, inaccessiblemem: none) uwtable
define range(i32 0, 2) i32 @Res_SimVerifyValue(ptr noundef readonly captures(none) %0, i32 noundef %1) local_unnamed_addr #7 {
  %3 = load ptr, ptr %0, align 8, !tbaa !36
  %4 = getelementptr i8, ptr %3, i64 40
  %.val29 = load ptr, ptr %4, align 8, !tbaa !61
  %5 = getelementptr i8, ptr %.val29, i64 4
  %.val29.val32 = load i32, ptr %5, align 4, !tbaa !22
  %6 = icmp sgt i32 %.val29.val32, 0
  br i1 %6, label %.lr.ph, label %.critedge

.lr.ph:                                           ; preds = %2
  %7 = getelementptr i8, ptr %.val29, i64 8
  %.val30.val = load ptr, ptr %7, align 8, !tbaa !25
  %8 = getelementptr inbounds nuw i8, ptr %0, i64 8
  %.not = icmp eq i32 %1, 0
  %9 = getelementptr inbounds nuw i8, ptr %0, i64 64
  %10 = getelementptr inbounds nuw i8, ptr %0, i64 84
  %11 = getelementptr inbounds nuw i8, ptr %0, i64 56
  %12 = getelementptr inbounds nuw i8, ptr %0, i64 80
  %13 = getelementptr inbounds nuw i8, ptr %0, i64 48
  br i1 %.not, label %.lr.ph.split.us, label %.lr.ph.split

.lr.ph.split.us:                                  ; preds = %.lr.ph, %17
  %indvars.iv37 = phi i64 [ %indvars.iv.next38, %17 ], [ 0, %.lr.ph ]
  %14 = load i32, ptr %8, align 8, !tbaa !37
  %15 = zext i32 %14 to i64
  %16 = icmp eq i64 %indvars.iv37, %15
  br i1 %16, label %.critedge, label %17

17:                                               ; preds = %.lr.ph.split.us
  %18 = getelementptr inbounds nuw ptr, ptr %.val30.val, i64 %indvars.iv37
  %19 = load ptr, ptr %18, align 8, !tbaa !19
  %20 = load ptr, ptr %11, align 8, !tbaa !27
  %21 = getelementptr i8, ptr %20, i64 8
  %.val27.us = load ptr, ptr %21, align 8, !tbaa !25
  %22 = getelementptr inbounds nuw ptr, ptr %.val27.us, i64 %indvars.iv37
  %23 = load ptr, ptr %22, align 8, !tbaa !19
  %24 = load i32, ptr %12, align 8, !tbaa !54
  %25 = add nsw i32 %24, -1
  %26 = ashr i32 %25, 5
  %27 = sext i32 %26 to i64
  %28 = getelementptr inbounds i32, ptr %23, i64 %27
  %29 = load i32, ptr %28, align 4, !tbaa !59
  %30 = and i32 %25, 31
  %31 = lshr i32 %29, %30
  %.0.us = and i32 %31, 1
  %32 = load ptr, ptr %13, align 8, !tbaa !26
  %33 = getelementptr inbounds nuw i8, ptr %19, i64 16
  %34 = load i32, ptr %33, align 8, !tbaa !62
  %35 = getelementptr i8, ptr %32, i64 8
  %.val26.us = load ptr, ptr %35, align 8, !tbaa !25
  %36 = sext i32 %34 to i64
  %37 = getelementptr inbounds ptr, ptr %.val26.us, i64 %36
  %38 = load ptr, ptr %37, align 8, !tbaa !19
  %sext.us = sub nsw i32 0, %.0.us
  store i32 %sext.us, ptr %38, align 4, !tbaa !59
  %indvars.iv.next38 = add nuw nsw i64 %indvars.iv37, 1
  %.val29.val.us = load i32, ptr %5, align 4, !tbaa !22
  %39 = sext i32 %.val29.val.us to i64
  %40 = icmp slt i64 %indvars.iv.next38, %39
  br i1 %40, label %.lr.ph.split.us, label %.critedge, !llvm.loop !111

.lr.ph.split:                                     ; preds = %.lr.ph, %44
  %indvars.iv = phi i64 [ %indvars.iv.next, %44 ], [ 0, %.lr.ph ]
  %41 = load i32, ptr %8, align 8, !tbaa !37
  %42 = zext i32 %41 to i64
  %43 = icmp eq i64 %indvars.iv, %42
  br i1 %43, label %.critedge, label %44

44:                                               ; preds = %.lr.ph.split
  %45 = getelementptr inbounds nuw ptr, ptr %.val30.val, i64 %indvars.iv
  %46 = load ptr, ptr %45, align 8, !tbaa !19
  %47 = load ptr, ptr %9, align 8, !tbaa !28
  %48 = getelementptr i8, ptr %47, i64 8
  %.val28 = load ptr, ptr %48, align 8, !tbaa !25
  %49 = getelementptr inbounds nuw ptr, ptr %.val28, i64 %indvars.iv
  %50 = load ptr, ptr %49, align 8, !tbaa !19
  %51 = load i32, ptr %10, align 4, !tbaa !55
  %52 = add nsw i32 %51, -1
  %53 = ashr i32 %52, 5
  %54 = sext i32 %53 to i64
  %55 = getelementptr inbounds i32, ptr %50, i64 %54
  %56 = load i32, ptr %55, align 4, !tbaa !59
  %57 = and i32 %52, 31
  %58 = lshr i32 %56, %57
  %.0 = and i32 %58, 1
  %59 = load ptr, ptr %13, align 8, !tbaa !26
  %60 = getelementptr inbounds nuw i8, ptr %46, i64 16
  %61 = load i32, ptr %60, align 8, !tbaa !62
  %62 = getelementptr i8, ptr %59, i64 8
  %.val26 = load ptr, ptr %62, align 8, !tbaa !25
  %63 = sext i32 %61 to i64
  %64 = getelementptr inbounds ptr, ptr %.val26, i64 %63
  %65 = load ptr, ptr %64, align 8, !tbaa !19
  %sext = sub nsw i32 0, %.0
  store i32 %sext, ptr %65, align 4, !tbaa !59
  %indvars.iv.next = add nuw nsw i64 %indvars.iv, 1
  %.val29.val = load i32, ptr %5, align 4, !tbaa !22
  %66 = sext i32 %.val29.val to i64
  %67 = icmp slt i64 %indvars.iv.next, %66
  br i1 %67, label %.lr.ph.split, label %.critedge, !llvm.loop !111

.critedge:                                        ; preds = %.lr.ph.split, %44, %.lr.ph.split.us, %17, %2
  tail call void @Res_SimPerformRound(ptr noundef nonnull %0, i32 noundef 1)
  %68 = load ptr, ptr %0, align 8, !tbaa !36
  %69 = getelementptr i8, ptr %68, i64 48
  %.val31 = load ptr, ptr %69, align 8, !tbaa !53
  %70 = getelementptr i8, ptr %.val31, i64 8
  %.val31.val = load ptr, ptr %70, align 8, !tbaa !25
  %71 = getelementptr inbounds nuw i8, ptr %.val31.val, i64 8
  %72 = load ptr, ptr %71, align 8, !tbaa !19
  %73 = getelementptr inbounds nuw i8, ptr %0, i64 48
  %74 = load ptr, ptr %73, align 8, !tbaa !26
  %75 = getelementptr inbounds nuw i8, ptr %72, i64 16
  %76 = load i32, ptr %75, align 8, !tbaa !62
  %77 = getelementptr i8, ptr %74, i64 8
  %.val = load ptr, ptr %77, align 8, !tbaa !25
  %78 = sext i32 %76 to i64
  %79 = getelementptr inbounds ptr, ptr %.val, i64 %78
  %80 = load ptr, ptr %79, align 8, !tbaa !19
  %81 = load i32, ptr %80, align 4, !tbaa !59
  %82 = icmp ne i32 %81, 0
  %83 = zext i1 %82 to i32
  ret i32 %83
}